target datalayout = "e-m:e-p270:32:32-p271:32:32-p272:64:64-i64:64-i128:128-f80:128-n8:16:32:64-S128"
target triple = "x86_64-pc-linux-gnu"

%struct._generic_SUNLinearSolver = type { ptr, ptr, ptr }
%struct._generic_SUNLinearSolver_Ops = type { ptr, ptr, ptr, ptr, ptr, ptr, ptr, ptr, ptr, ptr, ptr, ptr, ptr, ptr, ptr }
%struct._SUNLinearSolverContent_SPGMR = type { i32, i32, i32, i32, i32, i32, double, i32, ptr, ptr, ptr, ptr, ptr, ptr, ptr, ptr, ptr, ptr, ptr, ptr, ptr, ptr, ptr }

; Function Attrs: nounwind uwtable
define ptr @SUNLinSol_SPGMR(ptr noundef %0, i32 noundef %1, i32 noundef %2, ptr noundef %3) #0 {
  %5 = alloca ptr, align 8
  %6 = alloca i32, align 4
  %7 = alloca i32, align 4
  %8 = alloca ptr, align 8
  %9 = alloca ptr, align 8
  %10 = alloca ptr, align 8
  %11 = alloca ptr, align 8
  store ptr %0, ptr %5, align 8, !tbaa !3
  store i32 %1, ptr %6, align 4, !tbaa !8
  store i32 %2, ptr %7, align 4, !tbaa !8
  store ptr %3, ptr %8, align 8, !tbaa !10
  call void @llvm.lifetime.start.p0(i64 8, ptr %9) #6
  %12 = load ptr, ptr %8, align 8, !tbaa !10
  store ptr %12, ptr %9, align 8, !tbaa !10
  call void @llvm.lifetime.start.p0(i64 8, ptr %10) #6
  call void @llvm.lifetime.start.p0(i64 8, ptr %11) #6
  %13 = load i32, ptr %6, align 4, !tbaa !8
  %14 = icmp ne i32 %13, 0
  br i1 %14, label %15, label %25

15:                                               ; preds = %4
  %16 = load i32, ptr %6, align 4, !tbaa !8
  %17 = icmp ne i32 %16, 1
  br i1 %17, label %18, label %25

18:                                               ; preds = %15
  %19 = load i32, ptr %6, align 4, !tbaa !8
  %20 = icmp ne i32 %19, 2
  br i1 %20, label %21, label %25

21:                                               ; preds = %18
  %22 = load i32, ptr %6, align 4, !tbaa !8
  %23 = icmp ne i32 %22, 3
  br i1 %23, label %24, label %25

24:                                               ; preds = %21
  store i32 0, ptr %6, align 4, !tbaa !8
  br label %25

25:                                               ; preds = %24, %21, %18, %15, %4
  %26 = load i32, ptr %7, align 4, !tbaa !8
  %27 = icmp sle i32 %26, 0
  br i1 %27, label %28, label %29

28:                                               ; preds = %25
  store i32 5, ptr %7, align 4, !tbaa !8
  br label %29

29:                                               ; preds = %28, %25
  store ptr null, ptr %10, align 8, !tbaa !12
  %30 = load ptr, ptr %8, align 8, !tbaa !10
  %31 = call ptr @SUNLinSolNewEmpty(ptr noundef %30)
  store ptr %31, ptr %10, align 8, !tbaa !12
  %32 = load ptr, ptr %10, align 8, !tbaa !12
  %33 = getelementptr inbounds nuw %struct._generic_SUNLinearSolver, ptr %32, i32 0, i32 1
  %34 = load ptr, ptr %33, align 8, !tbaa !14
  %35 = getelementptr inbounds nuw %struct._generic_SUNLinearSolver_Ops, ptr %34, i32 0, i32 0
  store ptr @SUNLinSolGetType_SPGMR, ptr %35, align 8, !tbaa !17
  %36 = load ptr, ptr %10, align 8, !tbaa !12
  %37 = getelementptr inbounds nuw %struct._generic_SUNLinearSolver, ptr %36, i32 0, i32 1
  %38 = load ptr, ptr %37, align 8, !tbaa !14
  %39 = getelementptr inbounds nuw %struct._generic_SUNLinearSolver_Ops, ptr %38, i32 0, i32 1
  store ptr @SUNLinSolGetID_SPGMR, ptr %39, align 8, !tbaa !19
  %40 = load ptr, ptr %10, align 8, !tbaa !12
  %41 = getelementptr inbounds nuw %struct._generic_SUNLinearSolver, ptr %40, i32 0, i32 1
  %42 = load ptr, ptr %41, align 8, !tbaa !14
  %43 = getelementptr inbounds nuw %struct._generic_SUNLinearSolver_Ops, ptr %42, i32 0, i32 2
  store ptr @SUNLinSolSetATimes_SPGMR, ptr %43, align 8, !tbaa !20
  %44 = load ptr, ptr %10, align 8, !tbaa !12
  %45 = getelementptr inbounds nuw %struct._generic_SUNLinearSolver, ptr %44, i32 0, i32 1
  %46 = load ptr, ptr %45, align 8, !tbaa !14
  %47 = getelementptr inbounds nuw %struct._generic_SUNLinearSolver_Ops, ptr %46, i32 0, i32 3
  store ptr @SUNLinSolSetPreconditioner_SPGMR, ptr %47, align 8, !tbaa !21
  %48 = load ptr, ptr %10, align 8, !tbaa !12
  %49 = getelementptr inbounds nuw %struct._generic_SUNLinearSolver, ptr %48, i32 0, i32 1
  %50 = load ptr, ptr %49, align 8, !tbaa !14
  %51 = getelementptr inbounds nuw %struct._generic_SUNLinearSolver_Ops, ptr %50, i32 0, i32 4
  store ptr @SUNLinSolSetScalingVectors_SPGMR, ptr %51, align 8, !tbaa !22
  %52 = load ptr, ptr %10, align 8, !tbaa !12
  %53 = getelementptr inbounds nuw %struct._generic_SUNLinearSolver, ptr %52, i32 0, i32 1
  %54 = load ptr, ptr %53, align 8, !tbaa !14
  %55 = getelementptr inbounds nuw %struct._generic_SUNLinearSolver_Ops, ptr %54, i32 0, i32 5
  store ptr @SUNLinSolSetZeroGuess_SPGMR, ptr %55, align 8, !tbaa !23
  %56 = load ptr, ptr %10, align 8, !tbaa !12
  %57 = getelementptr inbounds nuw %struct._generic_SUNLinearSolver, ptr %56, i32 0, i32 1
  %58 = load ptr, ptr %57, align 8, !tbaa !14
  %59 = getelementptr inbounds nuw %struct._generic_SUNLinearSolver_Ops, ptr %58, i32 0, i32 6
  store ptr @SUNLinSolInitialize_SPGMR, ptr %59, align 8, !tbaa !24
  %60 = load ptr, ptr %10, align 8, !tbaa !12
  %61 = getelementptr inbounds nuw %struct._generic_SUNLinearSolver, ptr %60, i32 0, i32 1
  %62 = load ptr, ptr %61, align 8, !tbaa !14
  %63 = getelementptr inbounds nuw %struct._generic_SUNLinearSolver_Ops, ptr %62, i32 0, i32 7
  store ptr @SUNLinSolSetup_SPGMR, ptr %63, align 8, !tbaa !25
  %64 = load ptr, ptr %10, align 8, !tbaa !12
  %65 = getelementptr inbounds nuw %struct._generic_SUNLinearSolver, ptr %64, i32 0, i32 1
  %66 = load ptr, ptr %65, align 8, !tbaa !14
  %67 = getelementptr inbounds nuw %struct._generic_SUNLinearSolver_Ops, ptr %66, i32 0, i32 8
  store ptr @SUNLinSolSolve_SPGMR, ptr %67, align 8, !tbaa !26
  %68 = load ptr, ptr %10, align 8, !tbaa !12
  %69 = getelementptr inbounds nuw %struct._generic_SUNLinearSolver, ptr %68, i32 0, i32 1
  %70 = load ptr, ptr %69, align 8, !tbaa !14
  %71 = getelementptr inbounds nuw %struct._generic_SUNLinearSolver_Ops, ptr %70, i32 0, i32 9
  store ptr @SUNLinSolNumIters_SPGMR, ptr %71, align 8, !tbaa !27
  %72 = load ptr, ptr %10, align 8, !tbaa !12
  %73 = getelementptr inbounds nuw %struct._generic_SUNLinearSolver, ptr %72, i32 0, i32 1
  %74 = load ptr, ptr %73, align 8, !tbaa !14
  %75 = getelementptr inbounds nuw %struct._generic_SUNLinearSolver_Ops, ptr %74, i32 0, i32 10
  store ptr @SUNLinSolResNorm_SPGMR, ptr %75, align 8, !tbaa !28
  %76 = load ptr, ptr %10, align 8, !tbaa !12
  %77 = getelementptr inbounds nuw %struct._generic_SUNLinearSolver, ptr %76, i32 0, i32 1
  %78 = load ptr, ptr %77, align 8, !tbaa !14
  %79 = getelementptr inbounds nuw %struct._generic_SUNLinearSolver_Ops, ptr %78, i32 0, i32 13
  store ptr @SUNLinSolResid_SPGMR, ptr %79, align 8, !tbaa !29
  %80 = load ptr, ptr %10, align 8, !tbaa !12
  %81 = getelementptr inbounds nuw %struct._generic_SUNLinearSolver, ptr %80, i32 0, i32 1
  %82 = load ptr, ptr %81, align 8, !tbaa !14
  %83 = getelementptr inbounds nuw %struct._generic_SUNLinearSolver_Ops, ptr %82, i32 0, i32 11
  store ptr @SUNLinSolLastFlag_SPGMR, ptr %83, align 8, !tbaa !30
  %84 = load ptr, ptr %10, align 8, !tbaa !12
  %85 = getelementptr inbounds nuw %struct._generic_SUNLinearSolver, ptr %84, i32 0, i32 1
  %86 = load ptr, ptr %85, align 8, !tbaa !14
  %87 = getelementptr inbounds nuw %struct._generic_SUNLinearSolver_Ops, ptr %86, i32 0, i32 12
  store ptr @SUNLinSolSpace_SPGMR, ptr %87, align 8, !tbaa !31
  %88 = load ptr, ptr %10, align 8, !tbaa !12
  %89 = getelementptr inbounds nuw %struct._generic_SUNLinearSolver, ptr %88, i32 0, i32 1
  %90 = load ptr, ptr %89, align 8, !tbaa !14
  %91 = getelementptr inbounds nuw %struct._generic_SUNLinearSolver_Ops, ptr %90, i32 0, i32 14
  store ptr @SUNLinSolFree_SPGMR, ptr %91, align 8, !tbaa !32
  store ptr null, ptr %11, align 8, !tbaa !33
  %92 = call noalias ptr @malloc(i64 noundef 160) #7
  store ptr %92, ptr %11, align 8, !tbaa !33
  %93 = load ptr, ptr %11, align 8, !tbaa !33
  %94 = load ptr, ptr %10, align 8, !tbaa !12
  %95 = getelementptr inbounds nuw %struct._generic_SUNLinearSolver, ptr %94, i32 0, i32 0
  store ptr %93, ptr %95, align 8, !tbaa !35
  %96 = load ptr, ptr %11, align 8, !tbaa !33
  %97 = getelementptr inbounds nuw %struct._SUNLinearSolverContent_SPGMR, ptr %96, i32 0, i32 7
  store i32 0, ptr %97, align 8, !tbaa !36
  %98 = load i32, ptr %7, align 4, !tbaa !8
  %99 = load ptr, ptr %11, align 8, !tbaa !33
  %100 = getelementptr inbounds nuw %struct._SUNLinearSolverContent_SPGMR, ptr %99, i32 0, i32 0
  store i32 %98, ptr %100, align 8, !tbaa !42
  %101 = load i32, ptr %6, align 4, !tbaa !8
  %102 = load ptr, ptr %11, align 8, !tbaa !33
  %103 = getelementptr inbounds nuw %struct._SUNLinearSolverContent_SPGMR, ptr %102, i32 0, i32 1
  store i32 %101, ptr %103, align 4, !tbaa !43
  %104 = load ptr, ptr %11, align 8, !tbaa !33
  %105 = getelementptr inbounds nuw %struct._SUNLinearSolverContent_SPGMR, ptr %104, i32 0, i32 2
  store i32 1, ptr %105, align 8, !tbaa !44
  %106 = load ptr, ptr %11, align 8, !tbaa !33
  %107 = getelementptr inbounds nuw %struct._SUNLinearSolverContent_SPGMR, ptr %106, i32 0, i32 3
  store i32 0, ptr %107, align 4, !tbaa !45
  %108 = load ptr, ptr %11, align 8, !tbaa !33
  %109 = getelementptr inbounds nuw %struct._SUNLinearSolverContent_SPGMR, ptr %108, i32 0, i32 4
  store i32 0, ptr %109, align 8, !tbaa !46
  %110 = load ptr, ptr %11, align 8, !tbaa !33
  %111 = getelementptr inbounds nuw %struct._SUNLinearSolverContent_SPGMR, ptr %110, i32 0, i32 5
  store i32 0, ptr %111, align 4, !tbaa !47
  %112 = load ptr, ptr %11, align 8, !tbaa !33
  %113 = getelementptr inbounds nuw %struct._SUNLinearSolverContent_SPGMR, ptr %112, i32 0, i32 6
  store double 0.000000e+00, ptr %113, align 8, !tbaa !48
  %114 = load ptr, ptr %11, align 8, !tbaa !33
  %115 = getelementptr inbounds nuw %struct._SUNLinearSolverContent_SPGMR, ptr %114, i32 0, i32 18
  store ptr null, ptr %115, align 8, !tbaa !49
  %116 = load ptr, ptr %11, align 8, !tbaa !33
  %117 = getelementptr inbounds nuw %struct._SUNLinearSolverContent_SPGMR, ptr %116, i32 0, i32 20
  store ptr null, ptr %117, align 8, !tbaa !50
  %118 = load ptr, ptr %11, align 8, !tbaa !33
  %119 = getelementptr inbounds nuw %struct._SUNLinearSolverContent_SPGMR, ptr %118, i32 0, i32 13
  store ptr null, ptr %119, align 8, !tbaa !51
  %120 = load ptr, ptr %11, align 8, !tbaa !33
  %121 = getelementptr inbounds nuw %struct._SUNLinearSolverContent_SPGMR, ptr %120, i32 0, i32 14
  store ptr null, ptr %121, align 8, !tbaa !52
  %122 = load ptr, ptr %11, align 8, !tbaa !33
  %123 = getelementptr inbounds nuw %struct._SUNLinearSolverContent_SPGMR, ptr %122, i32 0, i32 8
  store ptr null, ptr %123, align 8, !tbaa !53
  %124 = load ptr, ptr %11, align 8, !tbaa !33
  %125 = getelementptr inbounds nuw %struct._SUNLinearSolverContent_SPGMR, ptr %124, i32 0, i32 9
  store ptr null, ptr %125, align 8, !tbaa !54
  %126 = load ptr, ptr %11, align 8, !tbaa !33
  %127 = getelementptr inbounds nuw %struct._SUNLinearSolverContent_SPGMR, ptr %126, i32 0, i32 10
  store ptr null, ptr %127, align 8, !tbaa !55
  %128 = load ptr, ptr %11, align 8, !tbaa !33
  %129 = getelementptr inbounds nuw %struct._SUNLinearSolverContent_SPGMR, ptr %128, i32 0, i32 11
  store ptr null, ptr %129, align 8, !tbaa !56
  %130 = load ptr, ptr %11, align 8, !tbaa !33
  %131 = getelementptr inbounds nuw %struct._SUNLinearSolverContent_SPGMR, ptr %130, i32 0, i32 12
  store ptr null, ptr %131, align 8, !tbaa !57
  %132 = load ptr, ptr %11, align 8, !tbaa !33
  %133 = getelementptr inbounds nuw %struct._SUNLinearSolverContent_SPGMR, ptr %132, i32 0, i32 15
  store ptr null, ptr %133, align 8, !tbaa !58
  %134 = load ptr, ptr %11, align 8, !tbaa !33
  %135 = getelementptr inbounds nuw %struct._SUNLinearSolverContent_SPGMR, ptr %134, i32 0, i32 16
  store ptr null, ptr %135, align 8, !tbaa !59
  %136 = load ptr, ptr %11, align 8, !tbaa !33
  %137 = getelementptr inbounds nuw %struct._SUNLinearSolverContent_SPGMR, ptr %136, i32 0, i32 17
  store ptr null, ptr %137, align 8, !tbaa !60
  %138 = load ptr, ptr %11, align 8, !tbaa !33
  %139 = getelementptr inbounds nuw %struct._SUNLinearSolverContent_SPGMR, ptr %138, i32 0, i32 19
  store ptr null, ptr %139, align 8, !tbaa !61
  %140 = load ptr, ptr %11, align 8, !tbaa !33
  %141 = getelementptr inbounds nuw %struct._SUNLinearSolverContent_SPGMR, ptr %140, i32 0, i32 21
  store ptr null, ptr %141, align 8, !tbaa !62
  %142 = load ptr, ptr %11, align 8, !tbaa !33
  %143 = getelementptr inbounds nuw %struct._SUNLinearSolverContent_SPGMR, ptr %142, i32 0, i32 22
  store ptr null, ptr %143, align 8, !tbaa !63
  %144 = load ptr, ptr %5, align 8, !tbaa !3
  %145 = call ptr @N_VClone(ptr noundef %144)
  %146 = load ptr, ptr %11, align 8, !tbaa !33
  %147 = getelementptr inbounds nuw %struct._SUNLinearSolverContent_SPGMR, ptr %146, i32 0, i32 18
  store ptr %145, ptr %147, align 8, !tbaa !49
  %148 = load ptr, ptr %5, align 8, !tbaa !3
  %149 = call ptr @N_VClone(ptr noundef %148)
  %150 = load ptr, ptr %11, align 8, !tbaa !33
  %151 = getelementptr inbounds nuw %struct._SUNLinearSolverContent_SPGMR, ptr %150, i32 0, i32 20
  store ptr %149, ptr %151, align 8, !tbaa !50
  %152 = load ptr, ptr %10, align 8, !tbaa !12
  call void @llvm.lifetime.end.p0(i64 8, ptr %11) #6
  call void @llvm.lifetime.end.p0(i64 8, ptr %10) #6
  call void @llvm.lifetime.end.p0(i64 8, ptr %9) #6
  ret ptr %152
}