; Function Attrs: nounwind uwtable
define ptr @SUNLinSol_SPGMR(ptr noundef %0, i32 noundef %1, i32 noundef %2, ptr noundef %3) local_unnamed_addr #0 {
  %or.cond5 = icmp ugt i32 %1, 3
  %spec.store.select6 = select i1 %or.cond5, i32 0, i32 %1
  %5 = icmp slt i32 %2, 1
  %spec.store.select = select i1 %5, i32 5, i32 %2
  %6 = tail call ptr @SUNLinSolNewEmpty(ptr noundef %3) #12
  %7 = getelementptr inbounds nuw i8, ptr %6, i64 8
  %8 = load ptr, ptr %7, align 8, !tbaa !3
  store ptr @SUNLinSolGetType_SPGMR, ptr %8, align 8, !tbaa !10
  %9 = getelementptr inbounds nuw i8, ptr %8, i64 8
  store ptr @SUNLinSolGetID_SPGMR, ptr %9, align 8, !tbaa !12
  %10 = getelementptr inbounds nuw i8, ptr %8, i64 16
  store ptr @SUNLinSolSetATimes_SPGMR, ptr %10, align 8, !tbaa !13
  %11 = getelementptr inbounds nuw i8, ptr %8, i64 24
  store ptr @SUNLinSolSetPreconditioner_SPGMR, ptr %11, align 8, !tbaa !14
  %12 = getelementptr inbounds nuw i8, ptr %8, i64 32
  store ptr @SUNLinSolSetScalingVectors_SPGMR, ptr %12, align 8, !tbaa !15
  %13 = getelementptr inbounds nuw i8, ptr %8, i64 40
  store ptr @SUNLinSolSetZeroGuess_SPGMR, ptr %13, align 8, !tbaa !16
  %14 = getelementptr inbounds nuw i8, ptr %8, i64 48
  store ptr @SUNLinSolInitialize_SPGMR, ptr %14, align 8, !tbaa !17
  %15 = getelementptr inbounds nuw i8, ptr %8, i64 56
  store ptr @SUNLinSolSetup_SPGMR, ptr %15, align 8, !tbaa !18
  %16 = getelementptr inbounds nuw i8, ptr %8, i64 64
  store ptr @SUNLinSolSolve_SPGMR, ptr %16, align 8, !tbaa !19
  %17 = getelementptr inbounds nuw i8, ptr %8, i64 72
  store ptr @SUNLinSolNumIters_SPGMR, ptr %17, align 8, !tbaa !20
  %18 = getelementptr inbounds nuw i8, ptr %8, i64 80
  store ptr @SUNLinSolResNorm_SPGMR, ptr %18, align 8, !tbaa !21
  %19 = getelementptr inbounds nuw i8, ptr %8, i64 104
  store ptr @SUNLinSolResid_SPGMR, ptr %19, align 8, !tbaa !22
  %20 = getelementptr inbounds nuw i8, ptr %8, i64 88
  store ptr @SUNLinSolLastFlag_SPGMR, ptr %20, align 8, !tbaa !23
  %21 = getelementptr inbounds nuw i8, ptr %8, i64 96
  store ptr @SUNLinSolSpace_SPGMR, ptr %21, align 8, !tbaa !24
  %22 = getelementptr inbounds nuw i8, ptr %8, i64 112
  store ptr @SUNLinSolFree_SPGMR, ptr %22, align 8, !tbaa !25
  %23 = tail call noalias dereferenceable_or_null(160) ptr @malloc(i64 noundef 160) #13
  store ptr %23, ptr %6, align 8, !tbaa !26
  %24 = getelementptr inbounds nuw i8, ptr %23, i64 32
  store i32 0, ptr %24, align 8, !tbaa !27
  store i32 %spec.store.select, ptr %23, align 8, !tbaa !35
  %25 = getelementptr inbounds nuw i8, ptr %23, i64 4
  store i32 %spec.store.select6, ptr %25, align 4, !tbaa !36
  %26 = getelementptr inbounds nuw i8, ptr %23, i64 8
  store i32 1, ptr %26, align 8, !tbaa !37
  %27 = getelementptr inbounds nuw i8, ptr %23, i64 12
  %28 = getelementptr inbounds nuw i8, ptr %23, i64 120
  %29 = getelementptr inbounds nuw i8, ptr %23, i64 136
  %30 = getelementptr inbounds nuw i8, ptr %23, i64 40
  tail call void @llvm.memset.p0.i64(ptr noundef nonnull align 4 dereferenceable(20) %27, i8 0, i64 20, i1 false)
  tail call void @llvm.memset.p0.i64(ptr noundef nonnull align 8 dereferenceable(120) %30, i8 0, i64 120, i1 false)
  %31 = tail call ptr @N_VClone(ptr noundef %0) #12
  store ptr %31, ptr %28, align 8, !tbaa !38
  %32 = tail call ptr @N_VClone(ptr noundef %0) #12
  store ptr %32, ptr %29, align 8, !tbaa !39
  ret ptr %6
}